(dp1
S'000000100000000000000100000100000000000001000001000000000000000000010000000000000000000111111111111100000001111111111111000000011000110000110000000110001100001100001001100111000011000010011000110000110000100110011100001100000101100000011011010001010000000000000100010100000000000000100100000100000000'
p2
S'e'
sS'000000000000000000000000000000100000000000100001001000010001001000011111000001110000000011110000111000100000001110111010001000000001111100100001000000011111000100010000101110111001000101001111000011110000010111010000011100000101000100000001000001000001000000000000000000010000000000000000000100000000'
p3
S'e'
sS'000000000000000000100000000000000010101000000000000000101010000000011111111111100000000111111111111000000001000000101111000000001000011110110000000000000110011100100000100001010111001000001000010101110010000111111111111000100001111111111100001000000000000000000011010000000000000000010100000001000000'
p4
S'v'
sS'000000010000000000000000000100000010000000000001000001100001000000010000011000010000000111100110000100010001011111100001000100011001111111000001000000000011111000001000000000100110000010000010011111100000100000111111100000000000011111001001000000011110000010001000000100000110100011010000000001100000'
p5
S'v'
sS'000100000000000000000001000000000000000000010000000000000000000100010000000000000010000111000000001000010000111100000100000010000111100000000000100001001111111000001000000011111110000100000011100000000000000011110010000000000001110000000010000000011000001000100000000010000010000000000000100010100001'
p6
S'y'
s.